; Function Attrs: mustprogress uwtable
define dso_local void @_ZN5cmsys20CommandLineArguments16PopulateVariableEPSt6vectorIbSaIbEERKNSt7__cxx1112basic_stringIcSt11char_traitsIcESaIcEEE(ptr nonnull readnone align 8 captures(none) %0, ptr noundef %1, ptr noundef nonnull align 8 dereferenceable(32) %2) local_unnamed_addr #3 align 2 {
  %4 = tail call noundef i32 @_ZNKSt7__cxx1112basic_stringIcSt11char_traitsIcESaIcEE7compareEPKc(ptr noundef nonnull align 8 dereferenceable(32) %2, ptr noundef nonnull @.str.10) #29
  %5 = icmp eq i32 %4, 0
  br i1 %5, label %33, label %6

6:                                                ; preds = %3
  %7 = tail call noundef i32 @_ZNKSt7__cxx1112basic_stringIcSt11char_traitsIcESaIcEE7compareEPKc(ptr noundef nonnull align 8 dereferenceable(32) %2, ptr noundef nonnull @.str.11) #29
  %8 = icmp eq i32 %7, 0
  br i1 %8, label %33, label %9

9:                                                ; preds = %6
  %10 = tail call noundef i32 @_ZNKSt7__cxx1112basic_stringIcSt11char_traitsIcESaIcEE7compareEPKc(ptr noundef nonnull align 8 dereferenceable(32) %2, ptr noundef nonnull @.str.12) #29
  %11 = icmp eq i32 %10, 0
  br i1 %11, label %33, label %12

12:                                               ; preds = %9
  %13 = tail call noundef i32 @_ZNKSt7__cxx1112basic_stringIcSt11char_traitsIcESaIcEE7compareEPKc(ptr noundef nonnull align 8 dereferenceable(32) %2, ptr noundef nonnull @.str.13) #29
  %14 = icmp eq i32 %13, 0
  br i1 %14, label %33, label %15

15:                                               ; preds = %12
  %16 = tail call noundef i32 @_ZNKSt7__cxx1112basic_stringIcSt11char_traitsIcESaIcEE7compareEPKc(ptr noundef nonnull align 8 dereferenceable(32) %2, ptr noundef nonnull @.str.14) #29
  %17 = icmp eq i32 %16, 0
  br i1 %17, label %33, label %18

18:                                               ; preds = %15
  %19 = tail call noundef i32 @_ZNKSt7__cxx1112basic_stringIcSt11char_traitsIcESaIcEE7compareEPKc(ptr noundef nonnull align 8 dereferenceable(32) %2, ptr noundef nonnull @.str.15) #29
  %20 = icmp eq i32 %19, 0
  br i1 %20, label %33, label %21

21:                                               ; preds = %18
  %22 = tail call noundef i32 @_ZNKSt7__cxx1112basic_stringIcSt11char_traitsIcESaIcEE7compareEPKc(ptr noundef nonnull align 8 dereferenceable(32) %2, ptr noundef nonnull @.str.16) #29
  %23 = icmp eq i32 %22, 0
  br i1 %23, label %33, label %24

24:                                               ; preds = %21
  %25 = tail call noundef i32 @_ZNKSt7__cxx1112basic_stringIcSt11char_traitsIcESaIcEE7compareEPKc(ptr noundef nonnull align 8 dereferenceable(32) %2, ptr noundef nonnull @.str.17) #29
  %26 = icmp eq i32 %25, 0
  br i1 %26, label %33, label %27

27:                                               ; preds = %24
  %28 = tail call noundef i32 @_ZNKSt7__cxx1112basic_stringIcSt11char_traitsIcESaIcEE7compareEPKc(ptr noundef nonnull align 8 dereferenceable(32) %2, ptr noundef nonnull @.str.18) #29
  %29 = icmp eq i32 %28, 0
  br i1 %29, label %33, label %30

30:                                               ; preds = %27
  %31 = tail call noundef i32 @_ZNKSt7__cxx1112basic_stringIcSt11char_traitsIcESaIcEE7compareEPKc(ptr noundef nonnull align 8 dereferenceable(32) %2, ptr noundef nonnull @.str.19) #29
  %32 = icmp eq i32 %31, 0
  br i1 %32, label %33, label %34

33:                                               ; preds = %30, %27, %24, %21, %18, %15, %12, %9, %6, %3
  br label %34

34:                                               ; preds = %33, %30
  %.0 = phi i1 [ true, %33 ], [ false, %30 ]
  %35 = getelementptr inbounds nuw i8, ptr %1, i64 16
  %36 = load ptr, ptr %35, align 8, !tbaa !144
  %37 = getelementptr inbounds nuw i8, ptr %1, i64 32
  %38 = load ptr, ptr %37, align 8, !tbaa !147
  %.not.i = icmp eq ptr %36, %38
  %.sroa.2.0..sroa_idx.i.i = getelementptr inbounds nuw i8, ptr %1, i64 24
  %.sroa.2.0.copyload.i11.i = load i32, ptr %.sroa.2.0..sroa_idx.i.i, align 8
  br i1 %.not.i, label %53, label %39

39:                                               ; preds = %34
  %40 = add i32 %.sroa.2.0.copyload.i11.i, 1
  store i32 %40, ptr %.sroa.2.0..sroa_idx.i.i, align 8, !tbaa !150
  %41 = icmp eq i32 %.sroa.2.0.copyload.i11.i, 63
  br i1 %41, label %42, label %_ZNSt13_Bit_iteratorppEi.exit.i

42:                                               ; preds = %39
  store i32 0, ptr %.sroa.2.0..sroa_idx.i.i, align 8, !tbaa !150
  %43 = getelementptr inbounds nuw i8, ptr %36, i64 8
  store ptr %43, ptr %35, align 8, !tbaa !144
  br label %_ZNSt13_Bit_iteratorppEi.exit.i

_ZNSt13_Bit_iteratorppEi.exit.i:                  ; preds = %42, %39
  %44 = zext nneg i32 %.sroa.2.0.copyload.i11.i to i64
  %45 = shl nuw i64 1, %44
  br i1 %.0, label %46, label %49

46:                                               ; preds = %_ZNSt13_Bit_iteratorppEi.exit.i
  %47 = load i64, ptr %36, align 8, !tbaa !51
  %48 = or i64 %47, %45
  store i64 %48, ptr %36, align 8, !tbaa !51
  br label %_ZNSt6vectorIbSaIbEE9push_backEb.exit

49:                                               ; preds = %_ZNSt13_Bit_iteratorppEi.exit.i
  %50 = xor i64 %45, -1
  %51 = load i64, ptr %36, align 8, !tbaa !51
  %52 = and i64 %51, %50
  store i64 %52, ptr %36, align 8, !tbaa !51
  br label %_ZNSt6vectorIbSaIbEE9push_backEb.exit

53:                                               ; preds = %34
  tail call void @_ZNSt6vectorIbSaIbEE13_M_insert_auxESt13_Bit_iteratorb(ptr noundef nonnull align 8 dereferenceable(40) %1, ptr %36, i32 %.sroa.2.0.copyload.i11.i, i1 noundef zeroext %.0)
  br label %_ZNSt6vectorIbSaIbEE9push_backEb.exit

_ZNSt6vectorIbSaIbEE9push_backEb.exit:            ; preds = %46, %49, %53
  ret void
}